target datalayout = "e-m:e-p270:32:32-p271:32:32-p272:64:64-i64:64-i128:128-f80:128-n8:16:32:64-S128"
target triple = "x86_64-unknown-linux-gnu"

%class.substitution = type <{ ptr, %class.var_offset_map, %class.svector.0, %class.ref_vector, %class.svector.3, %class.svector.5, %class.expr_offset_map, %class.ref_vector, %class.expr_offset_map.8, i32, [4 x i8] }>
%class.var_offset_map = type <{ %class.svector, i32, i32, i32, [4 x i8] }>
%class.svector = type { %class.vector }
%class.vector = type { ptr }
%class.svector.0 = type { %class.vector.1 }
%class.vector.1 = type { ptr }
%class.svector.3 = type { %class.vector.4 }
%class.vector.4 = type { ptr }
%class.svector.5 = type { %class.vector.6 }
%class.vector.6 = type { ptr }
%class.expr_offset_map = type <{ %class.vector.7, i32, [4 x i8] }>
%class.vector.7 = type { ptr }
%class.ref_vector = type { %class.ref_vector_core }
%class.ref_vector_core = type { %class.ref_manager_wrapper, %class.ptr_vector }
%class.ref_manager_wrapper = type { ptr }
%class.ptr_vector = type { %class.vector.2 }
%class.vector.2 = type { ptr }
%class.expr_offset_map.8 = type <{ %class.vector.9, i32, [4 x i8] }>
%class.vector.9 = type { ptr }
%"struct.var_offset_map<expr_offset>::data" = type { %class.expr_offset, i32, [4 x i8] }
%class.expr_offset = type <{ ptr, i32, [4 x i8] }>
%"struct.std::pair" = type { i32, i32 }
%"struct.expr_offset_map<substitution::color>::data" = type { i32, i32 }
%class.svector.58 = type { %class.vector.59 }
%class.vector.59 = type { ptr }

; Function Attrs: mustprogress nounwind uwtable
define linkonce_odr hidden noundef i32 @_ZNK6vectorIN15expr_offset_mapIN12substitution5colorEE4dataELb0EjE4sizeEv(ptr noundef nonnull align 8 dereferenceable(8) %this) #5 comdat align 2 {
entry:
  %retval = alloca i32, align 4
  %this.addr = alloca ptr, align 8
  store ptr %this, ptr %this.addr, align 8
  %this1 = load ptr, ptr %this.addr, align 8
  %m_data = getelementptr inbounds %class.vector.59, ptr %this1, i32 0, i32 0
  %0 = load ptr, ptr %m_data, align 8
  %cmp = icmp eq ptr %0, null
  br i1 %cmp, label %if.then, label %if.end

if.then:                                          ; preds = %entry
  store i32 0, ptr %retval, align 4
  br label %return

if.end:                                           ; preds = %entry
  %m_data2 = getelementptr inbounds %class.vector.59, ptr %this1, i32 0, i32 0
  %1 = load ptr, ptr %m_data2, align 8
  %arrayidx = getelementptr inbounds i32, ptr %1, i64 -1
  %2 = load i32, ptr %arrayidx, align 4
  store i32 %2, ptr %retval, align 4
  br label %return

return:                                           ; preds = %if.end, %if.then
  %3 = load i32, ptr %retval, align 4
  ret i32 %3
}

; Function Attrs: mustprogress nounwind uwtable
define linkonce_odr hidden noundef i32 @_ZNK6vectorI7svectorIN15expr_offset_mapIN12substitution5colorEE4dataEjELb1EjE4sizeEv(ptr noundef nonnull align 8 dereferenceable(8) %this) #5 comdat align 2 {
entry:
  %retval = alloca i32, align 4
  %this.addr = alloca ptr, align 8
  store ptr %this, ptr %this.addr, align 8
  %this1 = load ptr, ptr %this.addr, align 8
  %m_data = getelementptr inbounds %class.vector.9, ptr %this1, i32 0, i32 0
  %0 = load ptr, ptr %m_data, align 8
  %cmp = icmp eq ptr %0, null
  br i1 %cmp, label %if.then, label %if.end

if.then:                                          ; preds = %entry
  store i32 0, ptr %retval, align 4
  br label %return

if.end:                                           ; preds = %entry
  %m_data2 = getelementptr inbounds %class.vector.9, ptr %this1, i32 0, i32 0
  %1 = load ptr, ptr %m_data2, align 8
  %arrayidx = getelementptr inbounds i32, ptr %1, i64 -1
  %2 = load i32, ptr %arrayidx, align 4
  store i32 %2, ptr %retval, align 4
  br label %return

return:                                           ; preds = %if.end, %if.then
  %3 = load i32, ptr %retval, align 4
  ret i32 %3
}

; Function Attrs: mustprogress nounwind uwtable
define linkonce_odr hidden noundef nonnull align 8 dereferenceable(20) ptr @_ZNK6vectorIN14var_offset_mapI11expr_offsetE4dataELb0EjEixEj(ptr noundef nonnull align 8 dereferenceable(8) %this, i32 noundef %idx) #5 comdat align 2 {
entry:
  %this.addr = alloca ptr, align 8
  %idx.addr = alloca i32, align 4
  store ptr %this, ptr %this.addr, align 8
  store i32 %idx, ptr %idx.addr, align 4
  %this1 = load ptr, ptr %this.addr, align 8
  %m_data = getelementptr inbounds %class.vector, ptr %this1, i32 0, i32 0
  %0 = load ptr, ptr %m_data, align 8
  %1 = load i32, ptr %idx.addr, align 4
  %idxprom = zext i32 %1 to i64
  %arrayidx = getelementptr inbounds %"struct.var_offset_map<expr_offset>::data", ptr %0, i64 %idxprom
  ret ptr %arrayidx
}

; Function Attrs: mustprogress nounwind uwtable
define linkonce_odr hidden noundef i32 @_ZNK6vectorISt4pairIjjELb0EjE4sizeEv(ptr noundef nonnull align 8 dereferenceable(8) %this) #5 comdat align 2 {
entry:
  %retval = alloca i32, align 4
  %this.addr = alloca ptr, align 8
  store ptr %this, ptr %this.addr, align 8
  %this1 = load ptr, ptr %this.addr, align 8
  %m_data = getelementptr inbounds %class.vector.1, ptr %this1, i32 0, i32 0
  %0 = load ptr, ptr %m_data, align 8
  %cmp = icmp eq ptr %0, null
  br i1 %cmp, label %if.then, label %if.end

if.then:                                          ; preds = %entry
  store i32 0, ptr %retval, align 4
  br label %return

if.end:                                           ; preds = %entry
  %m_data2 = getelementptr inbounds %class.vector.1, ptr %this1, i32 0, i32 0
  %1 = load ptr, ptr %m_data2, align 8
  %arrayidx = getelementptr inbounds i32, ptr %1, i64 -1
  %2 = load i32, ptr %arrayidx, align 4
  store i32 %2, ptr %retval, align 4
  br label %return

return:                                           ; preds = %if.end, %if.then
  %3 = load i32, ptr %retval, align 4
  ret i32 %3
}

; Function Attrs: mustprogress nounwind uwtable
define linkonce_odr hidden noundef ptr @_ZN6vectorIN15expr_offset_mapIN12substitution5colorEE4dataELb0EjE3endEv(ptr noundef nonnull align 8 dereferenceable(8) %this) #5 comdat align 2 {
entry:
  %this.addr = alloca ptr, align 8
  store ptr %this, ptr %this.addr, align 8
  %this1 = load ptr, ptr %this.addr, align 8
  %m_data = getelementptr inbounds %class.vector.59, ptr %this1, i32 0, i32 0
  %0 = load ptr, ptr %m_data, align 8
  %call = call noundef i32 @_ZNK6vectorIN15expr_offset_mapIN12substitution5colorEE4dataELb0EjE4sizeEv(ptr noundef nonnull align 8 dereferenceable(8) %this1)
  %idx.ext = zext i32 %call to i64
  %add.ptr = getelementptr inbounds %"struct.expr_offset_map<substitution::color>::data", ptr %0, i64 %idx.ext
  ret ptr %add.ptr
}

; Function Attrs: mustprogress nounwind uwtable
define linkonce_odr hidden noundef ptr @_ZN6vectorIN15expr_offset_mapIN12substitution5colorEE4dataELb0EjE5beginEv(ptr noundef nonnull align 8 dereferenceable(8) %this) #5 comdat align 2 {
entry:
  %this.addr = alloca ptr, align 8
  store ptr %this, ptr %this.addr, align 8
  %this1 = load ptr, ptr %this.addr, align 8
  %m_data = getelementptr inbounds %class.vector.59, ptr %this1, i32 0, i32 0
  %0 = load ptr, ptr %m_data, align 8
  ret ptr %0
}

; Function Attrs: mustprogress nounwind uwtable
define linkonce_odr hidden noundef ptr @_ZN6vectorI7svectorIN15expr_offset_mapIN12substitution5colorEE4dataEjELb1EjE3endEv(ptr noundef nonnull align 8 dereferenceable(8) %this) #5 comdat align 2 {
entry:
  %this.addr = alloca ptr, align 8
  store ptr %this, ptr %this.addr, align 8
  %this1 = load ptr, ptr %this.addr, align 8
  %m_data = getelementptr inbounds %class.vector.9, ptr %this1, i32 0, i32 0
  %0 = load ptr, ptr %m_data, align 8
  %call = call noundef i32 @_ZNK6vectorI7svectorIN15expr_offset_mapIN12substitution5colorEE4dataEjELb1EjE4sizeEv(ptr noundef nonnull align 8 dereferenceable(8) %this1)
  %idx.ext = zext i32 %call to i64
  %add.ptr = getelementptr inbounds %class.svector.58, ptr %0, i64 %idx.ext
  ret ptr %add.ptr
}

; Function Attrs: mustprogress nounwind uwtable
define linkonce_odr hidden noundef ptr @_ZN6vectorI7svectorIN15expr_offset_mapIN12substitution5colorEE4dataEjELb1EjE5beginEv(ptr noundef nonnull align 8 dereferenceable(8) %this) #5 comdat align 2 {
entry:
  %this.addr = alloca ptr, align 8
  store ptr %this, ptr %this.addr, align 8
  %this1 = load ptr, ptr %this.addr, align 8
  %m_data = getelementptr inbounds %class.vector.9, ptr %this1, i32 0, i32 0
  %0 = load ptr, ptr %m_data, align 8
  ret ptr %0
}

; Function Attrs: mustprogress uwtable
define linkonce_odr hidden noundef zeroext i1 @_ZNK14var_offset_mapI11expr_offsetE4findEjjRS0_(ptr noundef nonnull align 8 dereferenceable(20) %this, i32 noundef %v_idx, i32 noundef %offset, ptr noundef nonnull align 8 dereferenceable(12) %r) #4 comdat align 2 {
entry:
  %retval = alloca i1, align 1
  %this.addr = alloca ptr, align 8
  %v_idx.addr = alloca i32, align 4
  %offset.addr = alloca i32, align 4
  %r.addr = alloca ptr, align 8
  %idx = alloca i32, align 4
  %d = alloca ptr, align 8
  store ptr %this, ptr %this.addr, align 8
  store i32 %v_idx, ptr %v_idx.addr, align 4
  store i32 %offset, ptr %offset.addr, align 4
  store ptr %r, ptr %r.addr, align 8
  %this1 = load ptr, ptr %this.addr, align 8
  %0 = load i32, ptr %v_idx.addr, align 4
  %1 = load i32, ptr %offset.addr, align 4
  %m_num_vars = getelementptr inbounds %class.var_offset_map, ptr %this1, i32 0, i32 2
  %2 = load i32, ptr %m_num_vars, align 4
  %mul = mul i32 %1, %2
  %add = add i32 %0, %mul
  store i32 %add, ptr %idx, align 4
  %m_map = getelementptr inbounds %class.var_offset_map, ptr %this1, i32 0, i32 0
  %3 = load i32, ptr %idx, align 4
  %call = call noundef nonnull align 8 dereferenceable(20) ptr @_ZNK6vectorIN14var_offset_mapI11expr_offsetE4dataELb0EjEixEj(ptr noundef nonnull align 8 dereferenceable(8) %m_map, i32 noundef %3)
  store ptr %call, ptr %d, align 8
  %4 = load ptr, ptr %d, align 8
  %m_timestamp = getelementptr inbounds %"struct.var_offset_map<expr_offset>::data", ptr %4, i32 0, i32 1
  %5 = load i32, ptr %m_timestamp, align 8
  %m_timestamp2 = getelementptr inbounds %class.var_offset_map, ptr %this1, i32 0, i32 3
  %6 = load i32, ptr %m_timestamp2, align 8
  %cmp = icmp eq i32 %5, %6
  br i1 %cmp, label %if.then, label %if.end

if.then:                                          ; preds = %entry
  %7 = load ptr, ptr %d, align 8
  %m_data = getelementptr inbounds %"struct.var_offset_map<expr_offset>::data", ptr %7, i32 0, i32 0
  %8 = load ptr, ptr %r.addr, align 8
  call void @llvm.memcpy.p0.p0.i64(ptr align 8 %8, ptr align 8 %m_data, i64 12, i1 false)
  store i1 true, ptr %retval, align 1
  br label %return

if.end:                                           ; preds = %entry
  store i1 false, ptr %retval, align 1
  br label %return

return:                                           ; preds = %if.end, %if.then
  %9 = load i1, ptr %retval, align 1
  ret i1 %9
}

; Function Attrs: mustprogress nounwind uwtable
define linkonce_odr hidden noundef ptr @_ZN6vectorISt4pairIjjELb0EjE3endEv(ptr noundef nonnull align 8 dereferenceable(8) %this) #5 comdat align 2 {
entry:
  %this.addr = alloca ptr, align 8
  store ptr %this, ptr %this.addr, align 8
  %this1 = load ptr, ptr %this.addr, align 8
  %m_data = getelementptr inbounds %class.vector.1, ptr %this1, i32 0, i32 0
  %0 = load ptr, ptr %m_data, align 8
  %call = call noundef i32 @_ZNK6vectorISt4pairIjjELb0EjE4sizeEv(ptr noundef nonnull align 8 dereferenceable(8) %this1)
  %idx.ext = zext i32 %call to i64
  %add.ptr = getelementptr inbounds %"struct.std::pair", ptr %0, i64 %idx.ext
  ret ptr %add.ptr
}

; Function Attrs: mustprogress nounwind uwtable
define linkonce_odr hidden noundef ptr @_ZN6vectorISt4pairIjjELb0EjE5beginEv(ptr noundef nonnull align 8 dereferenceable(8) %this) #5 comdat align 2 {
entry:
  %this.addr = alloca ptr, align 8
  store ptr %this, ptr %this.addr, align 8
  %this1 = load ptr, ptr %this.addr, align 8
  %m_data = getelementptr inbounds %class.vector.1, ptr %this1, i32 0, i32 0
  %0 = load ptr, ptr %m_data, align 8
  ret ptr %0
}

; Function Attrs: mustprogress nounwind uwtable
define linkonce_odr hidden void @_ZN11expr_offsetC2Ev(ptr noundef nonnull align 8 dereferenceable(12) %this) unnamed_addr #5 comdat align 2 {
entry:
  %this.addr = alloca ptr, align 8
  store ptr %this, ptr %this.addr, align 8
  %this1 = load ptr, ptr %this.addr, align 8
  %m_expr = getelementptr inbounds %class.expr_offset, ptr %this1, i32 0, i32 0
  store ptr null, ptr %m_expr, align 8
  %m_offset = getelementptr inbounds %class.expr_offset, ptr %this1, i32 0, i32 1
  store i32 0, ptr %m_offset, align 8
  ret void
}

; Function Attrs: mustprogress uwtable
define linkonce_odr hidden void @_ZN15expr_offset_mapIN12substitution5colorEE5resetEv(ptr noundef nonnull align 8 dereferenceable(12) %this) #4 comdat align 2 {
entry:
  %this.addr = alloca ptr, align 8
  %it = alloca ptr, align 8
  %end = alloca ptr, align 8
  %v = alloca ptr, align 8
  %it2 = alloca ptr, align 8
  %end2 = alloca ptr, align 8
  store ptr %this, ptr %this.addr, align 8
  %this1 = load ptr, ptr %this.addr, align 8
  %m_timestamp = getelementptr inbounds %class.expr_offset_map.8, ptr %this1, i32 0, i32 1
  %0 = load i32, ptr %m_timestamp, align 8
  %inc = add i32 %0, 1
  store i32 %inc, ptr %m_timestamp, align 8
  %m_timestamp2 = getelementptr inbounds %class.expr_offset_map.8, ptr %this1, i32 0, i32 1
  %1 = load i32, ptr %m_timestamp2, align 8
  %cmp = icmp eq i32 %1, -1
  br i1 %cmp, label %if.then, label %if.end

if.then:                                          ; preds = %entry
  %m_map = getelementptr inbounds %class.expr_offset_map.8, ptr %this1, i32 0, i32 0
  %call = call noundef ptr @_ZN6vectorI7svectorIN15expr_offset_mapIN12substitution5colorEE4dataEjELb1EjE5beginEv(ptr noundef nonnull align 8 dereferenceable(8) %m_map)
  store ptr %call, ptr %it, align 8
  %m_map3 = getelementptr inbounds %class.expr_offset_map.8, ptr %this1, i32 0, i32 0
  %call4 = call noundef ptr @_ZN6vectorI7svectorIN15expr_offset_mapIN12substitution5colorEE4dataEjELb1EjE3endEv(ptr noundef nonnull align 8 dereferenceable(8) %m_map3)
  store ptr %call4, ptr %end, align 8
  br label %for.cond

for.cond:                                         ; preds = %for.inc12, %if.then
  %2 = load ptr, ptr %it, align 8
  %3 = load ptr, ptr %end, align 8
  %cmp5 = icmp ne ptr %2, %3
  br i1 %cmp5, label %for.body, label %for.end14

for.body:                                         ; preds = %for.cond
  %4 = load ptr, ptr %it, align 8
  store ptr %4, ptr %v, align 8
  %5 = load ptr, ptr %v, align 8
  %call6 = call noundef ptr @_ZN6vectorIN15expr_offset_mapIN12substitution5colorEE4dataELb0EjE5beginEv(ptr noundef nonnull align 8 dereferenceable(8) %5)
  store ptr %call6, ptr %it2, align 8
  %6 = load ptr, ptr %v, align 8
  %call7 = call noundef ptr @_ZN6vectorIN15expr_offset_mapIN12substitution5colorEE4dataELb0EjE3endEv(ptr noundef nonnull align 8 dereferenceable(8) %6)
  store ptr %call7, ptr %end2, align 8
  br label %for.cond8

for.cond8:                                        ; preds = %for.inc, %for.body
  %7 = load ptr, ptr %it2, align 8
  %8 = load ptr, ptr %end2, align 8
  %cmp9 = icmp ne ptr %7, %8
  br i1 %cmp9, label %for.body10, label %for.end

for.body10:                                       ; preds = %for.cond8
  %9 = load ptr, ptr %it2, align 8
  %m_timestamp11 = getelementptr inbounds %"struct.expr_offset_map<substitution::color>::data", ptr %9, i32 0, i32 1
  store i32 0, ptr %m_timestamp11, align 4
  br label %for.inc

for.inc:                                          ; preds = %for.body10
  %10 = load ptr, ptr %it2, align 8
  %incdec.ptr = getelementptr inbounds %"struct.expr_offset_map<substitution::color>::data", ptr %10, i32 1
  store ptr %incdec.ptr, ptr %it2, align 8
  br label %for.cond8, !llvm.loop !19

for.end:                                          ; preds = %for.cond8
  br label %for.inc12

for.inc12:                                        ; preds = %for.end
  %11 = load ptr, ptr %it, align 8
  %incdec.ptr13 = getelementptr inbounds %class.svector.58, ptr %11, i32 1
  store ptr %incdec.ptr13, ptr %it, align 8
  br label %for.cond, !llvm.loop !20

for.end14:                                        ; preds = %for.cond
  %m_timestamp15 = getelementptr inbounds %class.expr_offset_map.8, ptr %this1, i32 0, i32 1
  store i32 1, ptr %m_timestamp15, align 8
  br label %if.end

if.end:                                           ; preds = %for.end14, %entry
  ret void
}

; Function Attrs: mustprogress uwtable
define hidden noundef zeroext i1 @_ZN12substitution7acyclicEv(ptr noundef nonnull align 8 dereferenceable(124) %this) #4 align 2 {
entry:
  %retval = alloca i1, align 1
  %this.addr = alloca ptr, align 8
  %r = alloca %class.expr_offset, align 8
  %it = alloca ptr, align 8
  %end = alloca ptr, align 8
  %agg.tmp = alloca %class.expr_offset, align 8
  store ptr %this, ptr %this.addr, align 8
  %this1 = load ptr, ptr %this.addr, align 8
  %m_color = getelementptr inbounds %class.substitution, ptr %this1, i32 0, i32 8
  call void @_ZN15expr_offset_mapIN12substitution5colorEE5resetEv(ptr noundef nonnull align 8 dereferenceable(12) %m_color)
  call void @_ZN11expr_offsetC2Ev(ptr noundef nonnull align 8 dereferenceable(12) %r)
  %m_vars = getelementptr inbounds %class.substitution, ptr %this1, i32 0, i32 2
  %call = call noundef ptr @_ZN6vectorISt4pairIjjELb0EjE5beginEv(ptr noundef nonnull align 8 dereferenceable(8) %m_vars)
  store ptr %call, ptr %it, align 8
  %m_vars2 = getelementptr inbounds %class.substitution, ptr %this1, i32 0, i32 2
  %call3 = call noundef ptr @_ZN6vectorISt4pairIjjELb0EjE3endEv(ptr noundef nonnull align 8 dereferenceable(8) %m_vars2)
  store ptr %call3, ptr %end, align 8
  br label %for.cond

for.cond:                                         ; preds = %for.inc, %entry
  %0 = load ptr, ptr %it, align 8
  %1 = load ptr, ptr %end, align 8
  %cmp = icmp ne ptr %0, %1
  br i1 %cmp, label %for.body, label %for.end

for.body:                                         ; preds = %for.cond
  %m_subst = getelementptr inbounds %class.substitution, ptr %this1, i32 0, i32 1
  %2 = load ptr, ptr %it, align 8
  %first = getelementptr inbounds %"struct.std::pair", ptr %2, i32 0, i32 0
  %3 = load i32, ptr %first, align 4
  %4 = load ptr, ptr %it, align 8
  %second = getelementptr inbounds %"struct.std::pair", ptr %4, i32 0, i32 1
  %5 = load i32, ptr %second, align 4
  %call4 = call noundef zeroext i1 @_ZNK14var_offset_mapI11expr_offsetE4findEjjRS0_(ptr noundef nonnull align 8 dereferenceable(20) %m_subst, i32 noundef %3, i32 noundef %5, ptr noundef nonnull align 8 dereferenceable(12) %r)
  call void @llvm.memcpy.p0.p0.i64(ptr align 8 %agg.tmp, ptr align 8 %r, i64 16, i1 false)
  %6 = getelementptr inbounds { ptr, i32 }, ptr %agg.tmp, i32 0, i32 0
  %7 = load ptr, ptr %6, align 8
  %8 = getelementptr inbounds { ptr, i32 }, ptr %agg.tmp, i32 0, i32 1
  %9 = load i32, ptr %8, align 8
  %call5 = call noundef zeroext i1 @_ZN12substitution7acyclicE11expr_offset(ptr noundef nonnull align 8 dereferenceable(124) %this1, ptr %7, i32 %9)
  br i1 %call5, label %if.end, label %if.then

if.then:                                          ; preds = %for.body
  store i1 false, ptr %retval, align 1
  br label %return

if.end:                                           ; preds = %for.body
  br label %for.inc

for.inc:                                          ; preds = %if.end
  %10 = load ptr, ptr %it, align 8
  %incdec.ptr = getelementptr inbounds %"struct.std::pair", ptr %10, i32 1
  store ptr %incdec.ptr, ptr %it, align 8
  br label %for.cond, !llvm.loop !18

for.end:                                          ; preds = %for.cond
  store i1 true, ptr %retval, align 1
  br label %return

return:                                           ; preds = %for.end, %if.then
  %11 = load i1, ptr %retval, align 1
  ret i1 %11
}