; Function Attrs: mustprogress uwtable
define hidden noundef zeroext i1 @_ZN12substitution7acyclicEv(ptr noundef nonnull align 8 dereferenceable(124) %this) local_unnamed_addr #5 align 2 {
entry:
  %m_timestamp.i = getelementptr inbounds i8, ptr %this, i64 112
  %0 = load i32, ptr %m_timestamp.i, align 8
  %inc.i = add i32 %0, 1
  store i32 %inc.i, ptr %m_timestamp.i, align 8
  %cmp.i = icmp eq i32 %inc.i, -1
  br i1 %cmp.i, label %if.then.i, label %_ZN15expr_offset_mapIN12substitution5colorEE5resetEv.exit

if.then.i:                                        ; preds = %entry
  %m_color = getelementptr inbounds i8, ptr %this, i64 104
  %1 = load ptr, ptr %m_color, align 8
  %cmp.i.i.i = icmp eq ptr %1, null
  br i1 %cmp.i.i.i, label %for.end14.i, label %_ZN6vectorI7svectorIN15expr_offset_mapIN12substitution5colorEE4dataEjELb1EjE3endEv.exit.i

_ZN6vectorI7svectorIN15expr_offset_mapIN12substitution5colorEE4dataEjELb1EjE3endEv.exit.i: ; preds = %if.then.i
  %arrayidx.i.i.i = getelementptr inbounds i8, ptr %1, i64 -4
  %2 = load i32, ptr %arrayidx.i.i.i, align 4
  %3 = zext i32 %2 to i64
  %add.ptr.i.i = getelementptr inbounds %class.svector.58, ptr %1, i64 %3
  %cmp5.not13.i = icmp eq i32 %2, 0
  br i1 %cmp5.not13.i, label %for.end14.i, label %for.body.i

for.body.i:                                       ; preds = %_ZN6vectorI7svectorIN15expr_offset_mapIN12substitution5colorEE4dataEjELb1EjE3endEv.exit.i, %for.inc12.i
  %it.014.i = phi ptr [ %incdec.ptr13.i, %for.inc12.i ], [ %1, %_ZN6vectorI7svectorIN15expr_offset_mapIN12substitution5colorEE4dataEjELb1EjE3endEv.exit.i ]
  %4 = load ptr, ptr %it.014.i, align 8
  %cmp.i.i6.i = icmp eq ptr %4, null
  br i1 %cmp.i.i6.i, label %for.inc12.i, label %_ZN6vectorIN15expr_offset_mapIN12substitution5colorEE4dataELb0EjE3endEv.exit.i

_ZN6vectorIN15expr_offset_mapIN12substitution5colorEE4dataELb0EjE3endEv.exit.i: ; preds = %for.body.i
  %arrayidx.i.i8.i = getelementptr inbounds i8, ptr %4, i64 -4
  %5 = load i32, ptr %arrayidx.i.i8.i, align 4
  %6 = zext i32 %5 to i64
  %add.ptr.i10.i = getelementptr inbounds %"struct.expr_offset_map<substitution::color>::data", ptr %4, i64 %6
  %cmp9.not11.i = icmp eq i32 %5, 0
  br i1 %cmp9.not11.i, label %for.inc12.i, label %for.body10.i

for.body10.i:                                     ; preds = %_ZN6vectorIN15expr_offset_mapIN12substitution5colorEE4dataELb0EjE3endEv.exit.i, %for.body10.i
  %it2.012.i = phi ptr [ %incdec.ptr.i, %for.body10.i ], [ %4, %_ZN6vectorIN15expr_offset_mapIN12substitution5colorEE4dataELb0EjE3endEv.exit.i ]
  %m_timestamp11.i = getelementptr inbounds i8, ptr %it2.012.i, i64 4
  store i32 0, ptr %m_timestamp11.i, align 4
  %incdec.ptr.i = getelementptr inbounds i8, ptr %it2.012.i, i64 8
  %cmp9.not.i = icmp eq ptr %incdec.ptr.i, %add.ptr.i10.i
  br i1 %cmp9.not.i, label %for.inc12.i, label %for.body10.i, !llvm.loop !27

for.inc12.i:                                      ; preds = %for.body10.i, %_ZN6vectorIN15expr_offset_mapIN12substitution5colorEE4dataELb0EjE3endEv.exit.i, %for.body.i
  %incdec.ptr13.i = getelementptr inbounds i8, ptr %it.014.i, i64 8
  %cmp5.not.i = icmp eq ptr %incdec.ptr13.i, %add.ptr.i.i
  br i1 %cmp5.not.i, label %for.end14.i, label %for.body.i, !llvm.loop !28

for.end14.i:                                      ; preds = %for.inc12.i, %_ZN6vectorI7svectorIN15expr_offset_mapIN12substitution5colorEE4dataEjELb1EjE3endEv.exit.i, %if.then.i
  store i32 1, ptr %m_timestamp.i, align 8
  br label %_ZN15expr_offset_mapIN12substitution5colorEE5resetEv.exit

_ZN15expr_offset_mapIN12substitution5colorEE5resetEv.exit: ; preds = %entry, %for.end14.i
  %m_vars = getelementptr inbounds i8, ptr %this, i64 32
  %7 = load ptr, ptr %m_vars, align 8
  %cmp.i.i = icmp eq ptr %7, null
  br i1 %cmp.i.i, label %return, label %_ZN6vectorISt4pairIjjELb0EjE3endEv.exit

_ZN6vectorISt4pairIjjELb0EjE3endEv.exit:          ; preds = %_ZN15expr_offset_mapIN12substitution5colorEE5resetEv.exit
  %arrayidx.i.i = getelementptr inbounds i8, ptr %7, i64 -4
  %8 = load i32, ptr %arrayidx.i.i, align 4
  %9 = zext i32 %8 to i64
  %add.ptr.i = getelementptr inbounds %"struct.std::pair", ptr %7, i64 %9
  %cmp.not8 = icmp eq i32 %8, 0
  br i1 %cmp.not8, label %return, label %for.body.lr.ph

for.body.lr.ph:                                   ; preds = %_ZN6vectorISt4pairIjjELb0EjE3endEv.exit
  %m_subst = getelementptr inbounds i8, ptr %this, i64 8
  %m_num_vars.i = getelementptr inbounds i8, ptr %this, i64 20
  %m_timestamp2.i = getelementptr inbounds i8, ptr %this, i64 24
  br label %for.body

for.body:                                         ; preds = %_ZNK14var_offset_mapI11expr_offsetE4findEjjRS0_.exit, %for.body.lr.ph
  %it.011 = phi ptr [ %7, %for.body.lr.ph ], [ %incdec.ptr, %_ZNK14var_offset_mapI11expr_offsetE4findEjjRS0_.exit ]
  %r.sroa.0.010 = phi ptr [ null, %for.body.lr.ph ], [ %r.sroa.0.1, %_ZNK14var_offset_mapI11expr_offsetE4findEjjRS0_.exit ]
  %r.sroa.3.09 = phi i32 [ 0, %for.body.lr.ph ], [ %r.sroa.3.1, %_ZNK14var_offset_mapI11expr_offsetE4findEjjRS0_.exit ]
  %10 = load i32, ptr %it.011, align 4
  %second = getelementptr inbounds i8, ptr %it.011, i64 4
  %11 = load i32, ptr %second, align 4
  %12 = load i32, ptr %m_num_vars.i, align 4
  %mul.i = mul i32 %12, %11
  %add.i = add i32 %mul.i, %10
  %13 = load ptr, ptr %m_subst, align 8
  %idxprom.i.i = zext i32 %add.i to i64
  %arrayidx.i.i4 = getelementptr inbounds %"struct.var_offset_map<expr_offset>::data", ptr %13, i64 %idxprom.i.i
  %m_timestamp.i5 = getelementptr inbounds i8, ptr %arrayidx.i.i4, i64 16
  %14 = load i32, ptr %m_timestamp.i5, align 8
  %15 = load i32, ptr %m_timestamp2.i, align 8
  %cmp.i6 = icmp eq i32 %14, %15
  br i1 %cmp.i6, label %if.then.i7, label %_ZNK14var_offset_mapI11expr_offsetE4findEjjRS0_.exit

if.then.i7:                                       ; preds = %for.body
  %r.sroa.0.0.copyload = load ptr, ptr %arrayidx.i.i4, align 8
  %r.sroa.3.0.arrayidx.i.i4.sroa_idx = getelementptr inbounds i8, ptr %arrayidx.i.i4, i64 8
  %r.sroa.3.0.copyload = load i32, ptr %r.sroa.3.0.arrayidx.i.i4.sroa_idx, align 8
  br label %_ZNK14var_offset_mapI11expr_offsetE4findEjjRS0_.exit

_ZNK14var_offset_mapI11expr_offsetE4findEjjRS0_.exit: ; preds = %for.body, %if.then.i7
  %r.sroa.3.1 = phi i32 [ %r.sroa.3.0.copyload, %if.then.i7 ], [ %r.sroa.3.09, %for.body ]
  %r.sroa.0.1 = phi ptr [ %r.sroa.0.0.copyload, %if.then.i7 ], [ %r.sroa.0.010, %for.body ]
  %call5 = tail call noundef zeroext i1 @_ZN12substitution7acyclicE11expr_offset(ptr noundef nonnull align 8 dereferenceable(124) %this, ptr %r.sroa.0.1, i32 %r.sroa.3.1)
  %incdec.ptr = getelementptr inbounds i8, ptr %it.011, i64 8
  %cmp.not = icmp ne ptr %incdec.ptr, %add.ptr.i
  %or.cond.not = select i1 %call5, i1 %cmp.not, i1 false
  br i1 %or.cond.not, label %for.body, label %return, !llvm.loop !29

return:                                           ; preds = %_ZNK14var_offset_mapI11expr_offsetE4findEjjRS0_.exit, %_ZN15expr_offset_mapIN12substitution5colorEE5resetEv.exit, %_ZN6vectorISt4pairIjjELb0EjE3endEv.exit
  %cmp.not.lcssa = phi i1 [ true, %_ZN6vectorISt4pairIjjELb0EjE3endEv.exit ], [ true, %_ZN15expr_offset_mapIN12substitution5colorEE5resetEv.exit ], [ %call5, %_ZNK14var_offset_mapI11expr_offsetE4findEjjRS0_.exit ]
  ret i1 %cmp.not.lcssa
}